; Function Attrs: mustprogress uwtable
define void @_ZN32pxrInternal_v0_24__pxrReserved__29UsdUtilsSparseAttrValueWriter26_InitializeSparseAuthoringEPNS_7VtValueE(ptr noundef nonnull align 8 dereferenceable(57) %0, ptr noundef %1) local_unnamed_addr #0 align 2 personality ptr @__gxx_personality_v0 {
  %3 = alloca %"class.pxrInternal_v0_24__pxrReserved__::VtValue", align 8
  %4 = alloca %"class.pxrInternal_v0_24__pxrReserved__::VtValue", align 8
  %5 = alloca %"class.pxrInternal_v0_24__pxrReserved__::VtValue", align 8
  %6 = getelementptr inbounds nuw i8, ptr %5, i64 8
  store ptr null, ptr %6, align 8
  %7 = invoke noundef zeroext i1 @_ZNK32pxrInternal_v0_24__pxrReserved__12UsdAttribute3GetEPNS_7VtValueENS_11UsdTimeCodeE(ptr noundef nonnull align 8 dereferenceable(32) %0, ptr noundef nonnull %5, double 0x7FF8000000000000)
          to label %8 unwind label %19

8:                                                ; preds = %2
  %9 = getelementptr inbounds nuw i8, ptr %1, i64 8
  %10 = load ptr, ptr %9, align 8
  %11 = icmp eq ptr %10, null
  br i1 %7, label %12, label %21

12:                                               ; preds = %8
  br i1 %11, label %23, label %13

13:                                               ; preds = %12
  %14 = load ptr, ptr %6, align 8
  %15 = icmp eq ptr %14, null
  br i1 %15, label %.invoke, label %16

16:                                               ; preds = %13
  %17 = invoke noundef zeroext i1 @_ZN32pxrInternal_v0_24__pxrReserved__8_IsCloseERKNS_7VtValueES2_(ptr noundef nonnull align 8 dereferenceable(16) %5, ptr noundef nonnull align 8 dereferenceable(16) %1)
          to label %18 unwind label %19

18:                                               ; preds = %16
  br i1 %17, label %23, label %.invoke

19:                                               ; preds = %.invoke, %16, %2
  %20 = landingpad { ptr, i32 }
          cleanup
  call void @_ZN32pxrInternal_v0_24__pxrReserved__7VtValueD2Ev(ptr noundef nonnull align 8 dereferenceable(16) %5) #18
  resume { ptr, i32 } %20

21:                                               ; preds = %8
  br i1 %11, label %23, label %.invoke

.invoke:                                          ; preds = %13, %18, %21
  %22 = invoke noundef zeroext i1 @_ZNK32pxrInternal_v0_24__pxrReserved__12UsdAttribute3SetERKNS_7VtValueENS_11UsdTimeCodeE(ptr noundef nonnull align 8 dereferenceable(32) %0, ptr noundef nonnull align 8 dereferenceable(16) %1, double 0x7FF8000000000000)
          to label %23 unwind label %19

23:                                               ; preds = %.invoke, %21, %12, %18
  %24 = getelementptr inbounds nuw i8, ptr %1, i64 8
  %25 = load ptr, ptr %24, align 8
  %26 = icmp eq ptr %25, null
  br i1 %26, label %42, label %27

27:                                               ; preds = %23
  %28 = getelementptr inbounds nuw i8, ptr %0, i64 40
  call void @llvm.lifetime.start.p0(i64 16, ptr nonnull %4)
  %29 = getelementptr inbounds nuw i8, ptr %4, i64 8
  store ptr null, ptr %29, align 8
  call void @_ZN32pxrInternal_v0_24__pxrReserved__7VtValue5_MoveERS0_S1_(ptr noundef nonnull align 8 dereferenceable(16) %28, ptr noundef nonnull align 8 dereferenceable(16) %4) #18
  call void @_ZN32pxrInternal_v0_24__pxrReserved__7VtValue5_MoveERS0_S1_(ptr noundef nonnull align 8 dereferenceable(16) %1, ptr noundef nonnull align 8 dereferenceable(16) %28) #18
  call void @_ZN32pxrInternal_v0_24__pxrReserved__7VtValue5_MoveERS0_S1_(ptr noundef nonnull align 8 dereferenceable(16) %4, ptr noundef nonnull align 8 dereferenceable(16) %1) #18
  %30 = load ptr, ptr %29, align 8
  %31 = ptrtoint ptr %30 to i64
  %.not.i.i.i = icmp eq ptr %30, null
  %32 = and i64 %31, 3
  %33 = icmp eq i64 %32, 3
  %or.cond.i.i.i = or i1 %.not.i.i.i, %33
  br i1 %or.cond.i.i.i, label %_ZN32pxrInternal_v0_24__pxrReserved__7VtValue4SwapERS0_.exit, label %34

34:                                               ; preds = %27
  %35 = and i64 %31, -8
  %36 = inttoptr i64 %35 to ptr
  %37 = getelementptr inbounds nuw i8, ptr %36, i64 32
  %38 = load ptr, ptr %37, align 8
  invoke void %38(ptr noundef nonnull align 8 dereferenceable(16) %4)
          to label %_ZN32pxrInternal_v0_24__pxrReserved__7VtValue4SwapERS0_.exit unwind label %39

39:                                               ; preds = %34
  %40 = landingpad { ptr, i32 }
          catch ptr null
  %41 = extractvalue { ptr, i32 } %40, 0
  call void @__clang_call_terminate(ptr %41) #17
  unreachable

_ZN32pxrInternal_v0_24__pxrReserved__7VtValue4SwapERS0_.exit: ; preds = %27, %34
  call void @llvm.lifetime.end.p0(i64 16, ptr nonnull %4)
  br label %63

42:                                               ; preds = %23
  call void @llvm.lifetime.start.p0(i64 16, ptr nonnull %3)
  %43 = getelementptr inbounds nuw i8, ptr %0, i64 48
  %44 = load ptr, ptr %43, align 8
  %45 = icmp eq ptr %44, null
  %46 = load ptr, ptr %6, align 8
  %47 = icmp eq ptr %46, null
  %or.cond.i11 = select i1 %45, i1 %47, i1 false
  br i1 %or.cond.i11, label %_ZN32pxrInternal_v0_24__pxrReserved__7VtValue4SwapERS0_.exit14, label %48

48:                                               ; preds = %42
  %49 = getelementptr inbounds nuw i8, ptr %0, i64 40
  %50 = getelementptr inbounds nuw i8, ptr %3, i64 8
  store ptr null, ptr %50, align 8
  call void @_ZN32pxrInternal_v0_24__pxrReserved__7VtValue5_MoveERS0_S1_(ptr noundef nonnull align 8 dereferenceable(16) %49, ptr noundef nonnull align 8 dereferenceable(16) %3) #18
  call void @_ZN32pxrInternal_v0_24__pxrReserved__7VtValue5_MoveERS0_S1_(ptr noundef nonnull align 8 dereferenceable(16) %5, ptr noundef nonnull align 8 dereferenceable(16) %49) #18
  call void @_ZN32pxrInternal_v0_24__pxrReserved__7VtValue5_MoveERS0_S1_(ptr noundef nonnull align 8 dereferenceable(16) %3, ptr noundef nonnull align 8 dereferenceable(16) %5) #18
  %51 = load ptr, ptr %50, align 8
  %52 = ptrtoint ptr %51 to i64
  %.not.i.i.i12 = icmp eq ptr %51, null
  %53 = and i64 %52, 3
  %54 = icmp eq i64 %53, 3
  %or.cond.i.i.i13 = or i1 %.not.i.i.i12, %54
  br i1 %or.cond.i.i.i13, label %_ZN32pxrInternal_v0_24__pxrReserved__7VtValue4SwapERS0_.exit14, label %55

55:                                               ; preds = %48
  %56 = and i64 %52, -8
  %57 = inttoptr i64 %56 to ptr
  %58 = getelementptr inbounds nuw i8, ptr %57, i64 32
  %59 = load ptr, ptr %58, align 8
  invoke void %59(ptr noundef nonnull align 8 dereferenceable(16) %3)
          to label %_ZN32pxrInternal_v0_24__pxrReserved__7VtValue4SwapERS0_.exit14 unwind label %60

60:                                               ; preds = %55
  %61 = landingpad { ptr, i32 }
          catch ptr null
  %62 = extractvalue { ptr, i32 } %61, 0
  call void @__clang_call_terminate(ptr %62) #17
  unreachable

_ZN32pxrInternal_v0_24__pxrReserved__7VtValue4SwapERS0_.exit14: ; preds = %42, %48, %55
  call void @llvm.lifetime.end.p0(i64 16, ptr nonnull %3)
  br label %63

63:                                               ; preds = %_ZN32pxrInternal_v0_24__pxrReserved__7VtValue4SwapERS0_.exit14, %_ZN32pxrInternal_v0_24__pxrReserved__7VtValue4SwapERS0_.exit
  %64 = load ptr, ptr %6, align 8
  %65 = ptrtoint ptr %64 to i64
  %.not.i.i = icmp eq ptr %64, null
  %66 = and i64 %65, 3
  %67 = icmp eq i64 %66, 3
  %or.cond.i.i = or i1 %.not.i.i, %67
  br i1 %or.cond.i.i, label %_ZN32pxrInternal_v0_24__pxrReserved__7VtValueD2Ev.exit, label %68

68:                                               ; preds = %63
  %69 = and i64 %65, -8
  %70 = inttoptr i64 %69 to ptr
  %71 = getelementptr inbounds nuw i8, ptr %70, i64 32
  %72 = load ptr, ptr %71, align 8
  invoke void %72(ptr noundef nonnull align 8 dereferenceable(16) %5)
          to label %_ZN32pxrInternal_v0_24__pxrReserved__7VtValueD2Ev.exit unwind label %73

73:                                               ; preds = %68
  %74 = landingpad { ptr, i32 }
          catch ptr null
  %75 = extractvalue { ptr, i32 } %74, 0
  call void @__clang_call_terminate(ptr %75) #17
  unreachable

_ZN32pxrInternal_v0_24__pxrReserved__7VtValueD2Ev.exit: ; preds = %63, %68
  ret void
}